; Function Attrs: nounwind uwtable
define dso_local zeroext i1 @IsBufferCleanupOK(i32 noundef %0) local_unnamed_addr #0 {
  %2 = alloca %struct.SpinDelayStatus, align 8
  %3 = alloca i32, align 4
  %4 = icmp slt i32 %0, 0
  br i1 %4, label %5, label %11

5:                                                ; preds = %1
  %6 = load ptr, ptr @LocalRefCount, align 8
  %7 = xor i32 %0, -1
  %8 = zext nneg i32 %7 to i64
  %9 = getelementptr inbounds nuw i32, ptr %6, i64 %8
  %10 = load i32, ptr %9, align 4
  %.not11 = icmp eq i32 %10, 1
  br label %GetPrivateRefCount.exit.thread

11:                                               ; preds = %1
  call void @llvm.lifetime.start.p0(i64 4, ptr nonnull %3)
  store i32 %0, ptr %3, align 4
  br label %13

12:                                               ; preds = %13
  %indvars.iv.next.i.i = add nuw nsw i64 %indvars.iv.i.i, 1
  %exitcond.not.i.i = icmp eq i64 %indvars.iv.next.i.i, 8
  br i1 %exitcond.not.i.i, label %18, label %13, !llvm.loop !10

13:                                               ; preds = %12, %11
  %indvars.iv.i.i = phi i64 [ 0, %11 ], [ %indvars.iv.next.i.i, %12 ]
  %14 = getelementptr inbounds nuw [8 x %struct.PrivateRefCountEntry], ptr @PrivateRefCountArray, i64 0, i64 %indvars.iv.i.i
  %15 = load i32, ptr %14, align 8
  %16 = icmp eq i32 %15, %0
  br i1 %16, label %GetPrivateRefCountEntry.exit.thread5.i, label %12

GetPrivateRefCountEntry.exit.thread5.i:           ; preds = %13
  %17 = getelementptr inbounds nuw [8 x %struct.PrivateRefCountEntry], ptr @PrivateRefCountArray, i64 0, i64 %indvars.iv.i.i
  call void @llvm.lifetime.end.p0(i64 4, ptr nonnull %3)
  br label %GetPrivateRefCount.exit

18:                                               ; preds = %12
  %19 = load i32, ptr @PrivateRefCountOverflowed, align 4
  %20 = icmp eq i32 %19, 0
  br i1 %20, label %GetPrivateRefCountEntry.exit.thread.i, label %GetPrivateRefCountEntry.exit.i

GetPrivateRefCountEntry.exit.thread.i:            ; preds = %18
  call void @llvm.lifetime.end.p0(i64 4, ptr nonnull %3)
  br label %GetPrivateRefCount.exit.thread

GetPrivateRefCountEntry.exit.i:                   ; preds = %18
  %21 = load ptr, ptr @PrivateRefCountHash, align 8
  %22 = call ptr @hash_search(ptr noundef %21, ptr noundef nonnull %3, i32 noundef 0, ptr noundef null) #16
  call void @llvm.lifetime.end.p0(i64 4, ptr nonnull %3)
  %23 = icmp eq ptr %22, null
  br i1 %23, label %GetPrivateRefCount.exit.thread, label %GetPrivateRefCount.exit

GetPrivateRefCount.exit:                          ; preds = %GetPrivateRefCountEntry.exit.thread5.i, %GetPrivateRefCountEntry.exit.i
  %.0.i7.i = phi ptr [ %17, %GetPrivateRefCountEntry.exit.thread5.i ], [ %22, %GetPrivateRefCountEntry.exit.i ]
  %24 = getelementptr inbounds nuw i8, ptr %.0.i7.i, i64 4
  %25 = load i32, ptr %24, align 4
  %.not = icmp eq i32 %25, 1
  br i1 %.not, label %26, label %GetPrivateRefCount.exit.thread

26:                                               ; preds = %GetPrivateRefCount.exit
  %27 = add nsw i32 %0, -1
  %28 = load ptr, ptr @BufferDescriptors, align 8
  %29 = zext i32 %27 to i64
  call void @llvm.lifetime.start.p0(i64 40, ptr nonnull %2) #16
  store i32 0, ptr %2, align 8
  %30 = getelementptr inbounds nuw i8, ptr %2, i64 4
  store i32 0, ptr %30, align 4
  %31 = getelementptr inbounds nuw i8, ptr %2, i64 8
  store i32 0, ptr %31, align 8
  %32 = getelementptr inbounds nuw i8, ptr %2, i64 16
  store ptr @.str.3, ptr %32, align 8
  %33 = getelementptr inbounds nuw i8, ptr %2, i64 24
  store i32 5707, ptr %33, align 8
  %34 = getelementptr inbounds nuw i8, ptr %2, i64 32
  store ptr @__func__.LockBufHdr, ptr %34, align 8
  %35 = getelementptr inbounds nuw %union.BufferDescPadded, ptr %28, i64 %29, i32 0, i32 2
  %36 = atomicrmw or ptr %35, i32 4194304 seq_cst, align 4
  %37 = and i32 %36, 4194304
  %.not2.i = icmp eq i32 %37, 0
  br i1 %.not2.i, label %LockBufHdr.exit, label %.lr.ph.i

.lr.ph.i:                                         ; preds = %26, %.lr.ph.i
  call void @perform_spin_delay(ptr noundef nonnull %2) #16
  %38 = atomicrmw or ptr %35, i32 4194304 seq_cst, align 4
  %39 = and i32 %38, 4194304
  %.not.i = icmp eq i32 %39, 0
  br i1 %.not.i, label %LockBufHdr.exit, label %.lr.ph.i

LockBufHdr.exit:                                  ; preds = %.lr.ph.i, %26
  %.lcssa.i = phi i32 [ %36, %26 ], [ %38, %.lr.ph.i ]
  call void @finish_spin_delay(ptr noundef nonnull %2) #16
  call void @llvm.lifetime.end.p0(i64 40, ptr nonnull %2) #16
  %40 = and i32 %.lcssa.i, 262143
  %41 = icmp eq i32 %40, 1
  call void asm sideeffect "", "~{memory},~{dirflag},~{fpsr},~{flags}"() #16, !srcloc !4
  %42 = and i32 %.lcssa.i, -4194305
  store volatile i32 %42, ptr %35, align 4
  br label %GetPrivateRefCount.exit.thread

GetPrivateRefCount.exit.thread:                   ; preds = %GetPrivateRefCountEntry.exit.thread.i, %GetPrivateRefCountEntry.exit.i, %LockBufHdr.exit, %GetPrivateRefCount.exit, %5
  %.0 = phi i1 [ %.not11, %5 ], [ false, %GetPrivateRefCount.exit ], [ %41, %LockBufHdr.exit ], [ false, %GetPrivateRefCountEntry.exit.i ], [ false, %GetPrivateRefCountEntry.exit.thread.i ]
  ret i1 %.0
}